target datalayout = "e-m:e-p270:32:32-p271:32:32-p272:64:64-i64:64-i128:128-f80:128-n8:16:32:64-S128"
target triple = "x86_64-pc-linux-gnu"

%struct.Aig_Man_t_ = type { ptr, ptr, ptr, ptr, ptr, ptr, ptr, %struct.Aig_Obj_t_, i32, i32, i32, i32, i32, i32, [7 x i32], i32, ptr, i32, ptr, i32, ptr, i32, i32, i32, ptr, i32, i32, i32, i32, i32, ptr, ptr, i32, ptr, ptr, i32, ptr, ptr, i32, i32, i32, ptr, ptr, ptr, ptr, ptr, ptr, ptr, ptr, ptr, ptr, ptr, ptr, ptr, ptr, i32, ptr, ptr, ptr, ptr, i32, i64, i64, i64, ptr, ptr }
%struct.Aig_Obj_t_ = type { %union.anon, ptr, ptr, i64, i32, i32, %union.anon.0 }
%union.anon = type { ptr }
%union.anon.0 = type { ptr }
%struct.Cnf_Dat_t_ = type { ptr, i32, i32, i32, ptr, ptr, ptr, ptr, ptr, ptr }
%struct.Vec_Ptr_t_ = type { i32, i32, ptr }

; Function Attrs: inlinehint nounwind uwtable
define internal i32 @lit_neg(i32 noundef %0) #5 {
  %2 = alloca i32, align 4
  store i32 %0, ptr %2, align 4, !tbaa !20
  %3 = load i32, ptr %2, align 4, !tbaa !20
  %4 = xor i32 %3, 1
  ret i32 %4
}

; Function Attrs: inlinehint nounwind uwtable
define internal i32 @lit_var(i32 noundef %0) #5 {
  %2 = alloca i32, align 4
  store i32 %0, ptr %2, align 4, !tbaa !20
  %3 = load i32, ptr %2, align 4, !tbaa !20
  %4 = ashr i32 %3, 1
  ret i32 %4
}

; Function Attrs: inlinehint nounwind uwtable
define internal i32 @Aig_ObjIsCo(ptr noundef %0) #5 {
  %2 = alloca ptr, align 8
  store ptr %0, ptr %2, align 8, !tbaa !44
  %3 = load ptr, ptr %2, align 8, !tbaa !44
  %4 = getelementptr inbounds nuw %struct.Aig_Obj_t_, ptr %3, i32 0, i32 3
  %5 = load i64, ptr %4, align 8
  %6 = and i64 %5, 7
  %7 = trunc i64 %6 to i32
  %8 = icmp eq i32 %7, 3
  %9 = zext i1 %8 to i32
  ret i32 %9
}

; Function Attrs: inlinehint nounwind uwtable
define internal ptr @Vec_PtrEntry(ptr noundef %0, i32 noundef %1) #5 {
  %3 = alloca ptr, align 8
  %4 = alloca i32, align 4
  store ptr %0, ptr %3, align 8, !tbaa !50
  store i32 %1, ptr %4, align 4, !tbaa !20
  %5 = load ptr, ptr %3, align 8, !tbaa !50
  %6 = getelementptr inbounds nuw %struct.Vec_Ptr_t_, ptr %5, i32 0, i32 2
  %7 = load ptr, ptr %6, align 8, !tbaa !53
  %8 = load i32, ptr %4, align 4, !tbaa !20
  %9 = sext i32 %8 to i64
  %10 = getelementptr inbounds ptr, ptr %7, i64 %9
  %11 = load ptr, ptr %10, align 8, !tbaa !54
  ret ptr %11
}

; Function Attrs: inlinehint nounwind uwtable
define internal i32 @Vec_PtrSize(ptr noundef %0) #5 {
  %2 = alloca ptr, align 8
  store ptr %0, ptr %2, align 8, !tbaa !50
  %3 = load ptr, ptr %2, align 8, !tbaa !50
  %4 = getelementptr inbounds nuw %struct.Vec_Ptr_t_, ptr %3, i32 0, i32 1
  %5 = load i32, ptr %4, align 4, !tbaa !51
  ret i32 %5
}

; Function Attrs: nounwind uwtable
define void @Cnf_DataTranformPolarity(ptr noundef %0, i32 noundef %1) #0 {
  %3 = alloca ptr, align 8
  %4 = alloca i32, align 4
  %5 = alloca ptr, align 8
  %6 = alloca ptr, align 8
  %7 = alloca i32, align 4
  %8 = alloca i32, align 4
  store ptr %0, ptr %3, align 8, !tbaa !32
  store i32 %1, ptr %4, align 4, !tbaa !20
  call void @llvm.lifetime.start.p0(i64 8, ptr %5) #11
  call void @llvm.lifetime.start.p0(i64 8, ptr %6) #11
  call void @llvm.lifetime.start.p0(i64 4, ptr %7) #11
  call void @llvm.lifetime.start.p0(i64 4, ptr %8) #11
  %9 = load ptr, ptr %3, align 8, !tbaa !32
  %10 = getelementptr inbounds nuw %struct.Cnf_Dat_t_, ptr %9, i32 0, i32 1
  %11 = load i32, ptr %10, align 8, !tbaa !56
  %12 = sext i32 %11 to i64
  %13 = call noalias ptr @calloc(i64 noundef %12, i64 noundef 4) #13
  store ptr %13, ptr %6, align 8, !tbaa !18
  store i32 0, ptr %7, align 4, !tbaa !20
  br label %14

14:                                               ; preds = %77, %2
  %15 = load i32, ptr %7, align 4, !tbaa !20
  %16 = load ptr, ptr %3, align 8, !tbaa !32
  %17 = getelementptr inbounds nuw %struct.Cnf_Dat_t_, ptr %16, i32 0, i32 0
  %18 = load ptr, ptr %17, align 8, !tbaa !55
  %19 = getelementptr inbounds nuw %struct.Aig_Man_t_, ptr %18, i32 0, i32 4
  %20 = load ptr, ptr %19, align 8, !tbaa !60
  %21 = call i32 @Vec_PtrSize(ptr noundef %20)
  %22 = icmp slt i32 %15, %21
  br i1 %22, label %23, label %31

23:                                               ; preds = %14
  %24 = load ptr, ptr %3, align 8, !tbaa !32
  %25 = getelementptr inbounds nuw %struct.Cnf_Dat_t_, ptr %24, i32 0, i32 0
  %26 = load ptr, ptr %25, align 8, !tbaa !55
  %27 = getelementptr inbounds nuw %struct.Aig_Man_t_, ptr %26, i32 0, i32 4
  %28 = load ptr, ptr %27, align 8, !tbaa !60
  %29 = load i32, ptr %7, align 4, !tbaa !20
  %30 = call ptr @Vec_PtrEntry(ptr noundef %28, i32 noundef %29)
  store ptr %30, ptr %5, align 8, !tbaa !44
  br label %31

31:                                               ; preds = %23, %14
  %32 = phi i1 [ false, %14 ], [ true, %23 ]
  br i1 %32, label %33, label %80

33:                                               ; preds = %31
  %34 = load ptr, ptr %5, align 8, !tbaa !44
  %35 = icmp eq ptr %34, null
  br i1 %35, label %36, label %37

36:                                               ; preds = %33
  br label %76

37:                                               ; preds = %33
  %38 = load i32, ptr %4, align 4, !tbaa !20
  %39 = icmp ne i32 %38, 0
  br i1 %39, label %45, label %40

40:                                               ; preds = %37
  %41 = load ptr, ptr %5, align 8, !tbaa !44
  %42 = call i32 @Aig_ObjIsCo(ptr noundef %41)
  %43 = icmp ne i32 %42, 0
  br i1 %43, label %44, label %45

44:                                               ; preds = %40
  br label %77

45:                                               ; preds = %40, %37
  %46 = load ptr, ptr %3, align 8, !tbaa !32
  %47 = getelementptr inbounds nuw %struct.Cnf_Dat_t_, ptr %46, i32 0, i32 5
  %48 = load ptr, ptr %47, align 8, !tbaa !45
  %49 = load ptr, ptr %5, align 8, !tbaa !44
  %50 = getelementptr inbounds nuw %struct.Aig_Obj_t_, ptr %49, i32 0, i32 5
  %51 = load i32, ptr %50, align 4, !tbaa !48
  %52 = sext i32 %51 to i64
  %53 = getelementptr inbounds i32, ptr %48, i64 %52
  %54 = load i32, ptr %53, align 4, !tbaa !20
  %55 = icmp sge i32 %54, 0
  br i1 %55, label %56, label %75

56:                                               ; preds = %45
  %57 = load ptr, ptr %5, align 8, !tbaa !44
  %58 = getelementptr inbounds nuw %struct.Aig_Obj_t_, ptr %57, i32 0, i32 3
  %59 = load i64, ptr %58, align 8
  %60 = lshr i64 %59, 3
  %61 = and i64 %60, 1
  %62 = trunc i64 %61 to i32
  %63 = load ptr, ptr %6, align 8, !tbaa !18
  %64 = load ptr, ptr %3, align 8, !tbaa !32
  %65 = getelementptr inbounds nuw %struct.Cnf_Dat_t_, ptr %64, i32 0, i32 5
  %66 = load ptr, ptr %65, align 8, !tbaa !45
  %67 = load ptr, ptr %5, align 8, !tbaa !44
  %68 = getelementptr inbounds nuw %struct.Aig_Obj_t_, ptr %67, i32 0, i32 5
  %69 = load i32, ptr %68, align 4, !tbaa !48
  %70 = sext i32 %69 to i64
  %71 = getelementptr inbounds i32, ptr %66, i64 %70
  %72 = load i32, ptr %71, align 4, !tbaa !20
  %73 = sext i32 %72 to i64
  %74 = getelementptr inbounds i32, ptr %63, i64 %73
  store i32 %62, ptr %74, align 4, !tbaa !20
  br label %75

75:                                               ; preds = %56, %45
  br label %76

76:                                               ; preds = %75, %36
  br label %77

77:                                               ; preds = %76, %44
  %78 = load i32, ptr %7, align 4, !tbaa !20
  %79 = add nsw i32 %78, 1
  store i32 %79, ptr %7, align 4, !tbaa !20
  br label %14, !llvm.loop !119

80:                                               ; preds = %31
  store i32 0, ptr %7, align 4, !tbaa !20
  br label %81

81:                                               ; preds = %124, %80
  %82 = load i32, ptr %7, align 4, !tbaa !20
  %83 = load ptr, ptr %3, align 8, !tbaa !32
  %84 = getelementptr inbounds nuw %struct.Cnf_Dat_t_, ptr %83, i32 0, i32 2
  %85 = load i32, ptr %84, align 4, !tbaa !58
  %86 = icmp slt i32 %82, %85
  br i1 %86, label %87, label %127

87:                                               ; preds = %81
  %88 = load ptr, ptr %3, align 8, !tbaa !32
  %89 = getelementptr inbounds nuw %struct.Cnf_Dat_t_, ptr %88, i32 0, i32 4
  %90 = load ptr, ptr %89, align 8, !tbaa !59
  %91 = getelementptr inbounds ptr, ptr %90, i64 0
  %92 = load ptr, ptr %91, align 8, !tbaa !18
  %93 = load i32, ptr %7, align 4, !tbaa !20
  %94 = sext i32 %93 to i64
  %95 = getelementptr inbounds i32, ptr %92, i64 %94
  %96 = load i32, ptr %95, align 4, !tbaa !20
  %97 = call i32 @lit_var(i32 noundef %96)
  store i32 %97, ptr %8, align 4, !tbaa !20
  %98 = load ptr, ptr %6, align 8, !tbaa !18
  %99 = load i32, ptr %8, align 4, !tbaa !20
  %100 = sext i32 %99 to i64
  %101 = getelementptr inbounds i32, ptr %98, i64 %100
  %102 = load i32, ptr %101, align 4, !tbaa !20
  %103 = icmp ne i32 %102, 0
  br i1 %103, label %104, label %123

104:                                              ; preds = %87
  %105 = load ptr, ptr %3, align 8, !tbaa !32
  %106 = getelementptr inbounds nuw %struct.Cnf_Dat_t_, ptr %105, i32 0, i32 4
  %107 = load ptr, ptr %106, align 8, !tbaa !59
  %108 = getelementptr inbounds ptr, ptr %107, i64 0
  %109 = load ptr, ptr %108, align 8, !tbaa !18
  %110 = load i32, ptr %7, align 4, !tbaa !20
  %111 = sext i32 %110 to i64
  %112 = getelementptr inbounds i32, ptr %109, i64 %111
  %113 = load i32, ptr %112, align 4, !tbaa !20
  %114 = call i32 @lit_neg(i32 noundef %113)
  %115 = load ptr, ptr %3, align 8, !tbaa !32
  %116 = getelementptr inbounds nuw %struct.Cnf_Dat_t_, ptr %115, i32 0, i32 4
  %117 = load ptr, ptr %116, align 8, !tbaa !59
  %118 = getelementptr inbounds ptr, ptr %117, i64 0
  %119 = load ptr, ptr %118, align 8, !tbaa !18
  %120 = load i32, ptr %7, align 4, !tbaa !20
  %121 = sext i32 %120 to i64
  %122 = getelementptr inbounds i32, ptr %119, i64 %121
  store i32 %114, ptr %122, align 4, !tbaa !20
  br label %123

123:                                              ; preds = %104, %87
  br label %124

124:                                              ; preds = %123
  %125 = load i32, ptr %7, align 4, !tbaa !20
  %126 = add nsw i32 %125, 1
  store i32 %126, ptr %7, align 4, !tbaa !20
  br label %81, !llvm.loop !120

127:                                              ; preds = %81
  %128 = load ptr, ptr %6, align 8, !tbaa !18
  %129 = icmp ne ptr %128, null
  br i1 %129, label %130, label %132

130:                                              ; preds = %127
  %131 = load ptr, ptr %6, align 8, !tbaa !18
  call void @free(ptr noundef %131) #11
  store ptr null, ptr %6, align 8, !tbaa !18
  br label %133

132:                                              ; preds = %127
  br label %133

133:                                              ; preds = %132, %130
  call void @llvm.lifetime.end.p0(i64 4, ptr %8) #11
  call void @llvm.lifetime.end.p0(i64 4, ptr %7) #11
  call void @llvm.lifetime.end.p0(i64 8, ptr %6) #11
  call void @llvm.lifetime.end.p0(i64 8, ptr %5) #11
  ret void
}