; Function Attrs: nounwind uwtable
define void @Cnf_DataTranformPolarity(ptr noundef readonly captures(none) %0, i32 noundef %1) local_unnamed_addr #0 {
  %3 = getelementptr inbounds nuw i8, ptr %0, i64 8
  %4 = load i32, ptr %3, align 8, !tbaa !48
  %5 = sext i32 %4 to i64
  %6 = tail call noalias ptr @calloc(i64 noundef %5, i64 noundef 4) #19
  %7 = load ptr, ptr %0, align 8, !tbaa !47
  %8 = getelementptr inbounds nuw i8, ptr %7, i64 32
  %9 = load ptr, ptr %8, align 8, !tbaa !52
  %10 = getelementptr i8, ptr %9, i64 4
  %.val = load i32, ptr %10, align 4, !tbaa !38
  %11 = icmp sgt i32 %.val, 0
  br i1 %11, label %.lr.ph, label %.critedge.preheader

.lr.ph:                                           ; preds = %2
  %12 = getelementptr i8, ptr %9, i64 8
  %.val33 = load ptr, ptr %12, align 8, !tbaa !40
  %.not31 = icmp eq i32 %1, 0
  %13 = getelementptr inbounds nuw i8, ptr %0, i64 32
  %wide.trip.count44 = zext nneg i32 %.val to i64
  br i1 %.not31, label %.lr.ph.split.us, label %.lr.ph.split

.lr.ph.split.us:                                  ; preds = %.lr.ph, %34
  %indvars.iv41 = phi i64 [ %indvars.iv.next42, %34 ], [ 0, %.lr.ph ]
  %14 = getelementptr inbounds nuw ptr, ptr %.val33, i64 %indvars.iv41
  %15 = load ptr, ptr %14, align 8, !tbaa !41
  %16 = icmp eq ptr %15, null
  br i1 %16, label %34, label %17

17:                                               ; preds = %.lr.ph.split.us
  %18 = getelementptr i8, ptr %15, i64 24
  %.val34.us = load i64, ptr %18, align 8
  %19 = and i64 %.val34.us, 7
  %.not35.us = icmp eq i64 %19, 3
  br i1 %.not35.us, label %34, label %20

20:                                               ; preds = %17
  %21 = load ptr, ptr %13, align 8, !tbaa !42
  %22 = getelementptr inbounds nuw i8, ptr %15, i64 36
  %23 = load i32, ptr %22, align 4, !tbaa !45
  %24 = sext i32 %23 to i64
  %25 = getelementptr inbounds i32, ptr %21, i64 %24
  %26 = load i32, ptr %25, align 4, !tbaa !28
  %27 = icmp sgt i32 %26, -1
  br i1 %27, label %28, label %34

28:                                               ; preds = %20
  %29 = trunc i64 %.val34.us to i32
  %30 = lshr i32 %29, 3
  %31 = and i32 %30, 1
  %32 = zext nneg i32 %26 to i64
  %33 = getelementptr inbounds nuw i32, ptr %6, i64 %32
  store i32 %31, ptr %33, align 4, !tbaa !28
  br label %34

34:                                               ; preds = %28, %20, %17, %.lr.ph.split.us
  %indvars.iv.next42 = add nuw nsw i64 %indvars.iv41, 1
  %exitcond45.not = icmp eq i64 %indvars.iv.next42, %wide.trip.count44
  br i1 %exitcond45.not, label %.critedge.preheader, label %.lr.ph.split.us, !llvm.loop !106

.critedge.preheader:                              ; preds = %60, %34, %2
  %35 = getelementptr inbounds nuw i8, ptr %0, i64 12
  %36 = load i32, ptr %35, align 4, !tbaa !50
  %37 = icmp sgt i32 %36, 0
  br i1 %37, label %.lr.ph38, label %.critedge._crit_edge

.lr.ph38:                                         ; preds = %.critedge.preheader
  %38 = getelementptr inbounds nuw i8, ptr %0, i64 24
  %39 = load ptr, ptr %38, align 8, !tbaa !51
  %40 = load ptr, ptr %39, align 8, !tbaa !16
  br label %61

.lr.ph.split:                                     ; preds = %.lr.ph, %60
  %indvars.iv = phi i64 [ %indvars.iv.next, %60 ], [ 0, %.lr.ph ]
  %41 = getelementptr inbounds nuw ptr, ptr %.val33, i64 %indvars.iv
  %42 = load ptr, ptr %41, align 8, !tbaa !41
  %43 = icmp eq ptr %42, null
  br i1 %43, label %60, label %44

44:                                               ; preds = %.lr.ph.split
  %45 = load ptr, ptr %13, align 8, !tbaa !42
  %46 = getelementptr inbounds nuw i8, ptr %42, i64 36
  %47 = load i32, ptr %46, align 4, !tbaa !45
  %48 = sext i32 %47 to i64
  %49 = getelementptr inbounds i32, ptr %45, i64 %48
  %50 = load i32, ptr %49, align 4, !tbaa !28
  %51 = icmp sgt i32 %50, -1
  br i1 %51, label %52, label %60

52:                                               ; preds = %44
  %53 = getelementptr inbounds nuw i8, ptr %42, i64 24
  %54 = load i64, ptr %53, align 8
  %55 = trunc i64 %54 to i32
  %56 = lshr i32 %55, 3
  %57 = and i32 %56, 1
  %58 = zext nneg i32 %50 to i64
  %59 = getelementptr inbounds nuw i32, ptr %6, i64 %58
  store i32 %57, ptr %59, align 4, !tbaa !28
  br label %60

60:                                               ; preds = %.lr.ph.split, %52, %44
  %indvars.iv.next = add nuw nsw i64 %indvars.iv, 1
  %exitcond.not = icmp eq i64 %indvars.iv.next, %wide.trip.count44
  br i1 %exitcond.not, label %.critedge.preheader, label %.lr.ph.split, !llvm.loop !106

61:                                               ; preds = %.lr.ph38, %.critedge
  %62 = phi i32 [ %36, %.lr.ph38 ], [ %71, %.critedge ]
  %indvars.iv46 = phi i64 [ 0, %.lr.ph38 ], [ %indvars.iv.next47, %.critedge ]
  %63 = getelementptr inbounds nuw i32, ptr %40, i64 %indvars.iv46
  %64 = load i32, ptr %63, align 4, !tbaa !28
  %65 = ashr i32 %64, 1
  %66 = sext i32 %65 to i64
  %67 = getelementptr inbounds i32, ptr %6, i64 %66
  %68 = load i32, ptr %67, align 4, !tbaa !28
  %.not30 = icmp eq i32 %68, 0
  br i1 %.not30, label %.critedge, label %69

69:                                               ; preds = %61
  %70 = xor i32 %64, 1
  store i32 %70, ptr %63, align 4, !tbaa !28
  %.pre = load i32, ptr %35, align 4, !tbaa !50
  br label %.critedge

.critedge:                                        ; preds = %61, %69
  %71 = phi i32 [ %62, %61 ], [ %.pre, %69 ]
  %indvars.iv.next47 = add nuw nsw i64 %indvars.iv46, 1
  %72 = sext i32 %71 to i64
  %73 = icmp slt i64 %indvars.iv.next47, %72
  br i1 %73, label %61, label %.critedge._crit_edge.thread, !llvm.loop !107

.critedge._crit_edge:                             ; preds = %.critedge.preheader
  %.not = icmp eq ptr %6, null
  br i1 %.not, label %74, label %.critedge._crit_edge.thread

.critedge._crit_edge.thread:                      ; preds = %.critedge, %.critedge._crit_edge
  tail call void @free(ptr noundef nonnull %6) #16
  br label %74

74:                                               ; preds = %.critedge._crit_edge, %.critedge._crit_edge.thread
  ret void
}